target datalayout = "e-m:e-p270:32:32-p271:32:32-p272:64:64-i64:64-i128:128-f80:128-n8:16:32:64-S128"
target triple = "x86_64-pc-linux-gnu"

%"struct.open_spiel::chess_common::Square" = type { i8, i8 }
%"struct.open_spiel::chess::Piece" = type { i8, i8 }
%"struct.open_spiel::chess_common::Offset" = type { i8, i8 }
%class.anon.185 = type { ptr, ptr, ptr }

; Function Attrs: mustprogress nounwind uwtable
define linkonce_odr noundef zeroext i1 @_ZNK10open_spiel12chess_common6SquareeqERKS1_(ptr noundef nonnull align 1 dereferenceable(2) %0, ptr noundef nonnull align 1 dereferenceable(2) %1) #5 comdat align 2 {
  %3 = alloca ptr, align 8
  %4 = alloca ptr, align 8
  store ptr %0, ptr %3, align 8
  store ptr %1, ptr %4, align 8
  %5 = load ptr, ptr %3, align 8
  %6 = getelementptr inbounds nuw %"struct.open_spiel::chess_common::Square", ptr %5, i32 0, i32 0
  %7 = load i8, ptr %6, align 1
  %8 = sext i8 %7 to i32
  %9 = load ptr, ptr %4, align 8
  %10 = getelementptr inbounds nuw %"struct.open_spiel::chess_common::Square", ptr %9, i32 0, i32 0
  %11 = load i8, ptr %10, align 1
  %12 = sext i8 %11 to i32
  %13 = icmp eq i32 %8, %12
  br i1 %13, label %14, label %23

14:                                               ; preds = %2
  %15 = getelementptr inbounds nuw %"struct.open_spiel::chess_common::Square", ptr %5, i32 0, i32 1
  %16 = load i8, ptr %15, align 1
  %17 = sext i8 %16 to i32
  %18 = load ptr, ptr %4, align 8
  %19 = getelementptr inbounds nuw %"struct.open_spiel::chess_common::Square", ptr %18, i32 0, i32 1
  %20 = load i8, ptr %19, align 1
  %21 = sext i8 %20 to i32
  %22 = icmp eq i32 %17, %21
  br label %23

23:                                               ; preds = %14, %2
  %24 = phi i1 [ false, %2 ], [ %22, %14 ]
  ret i1 %24
}

; Function Attrs: mustprogress nounwind uwtable
define linkonce_odr i16 @_ZN10open_spiel12chess_commonplERKNS0_6SquareERKNS0_6OffsetE(ptr noundef nonnull align 1 dereferenceable(2) %0, ptr noundef nonnull align 1 dereferenceable(2) %1) #5 comdat {
  %3 = alloca %"struct.open_spiel::chess_common::Square", align 1
  %4 = alloca ptr, align 8
  %5 = alloca ptr, align 8
  %6 = alloca i8, align 1
  %7 = alloca i8, align 1
  store ptr %0, ptr %4, align 8
  store ptr %1, ptr %5, align 8
  %8 = load ptr, ptr %4, align 8
  %9 = getelementptr inbounds nuw %"struct.open_spiel::chess_common::Square", ptr %8, i32 0, i32 0
  %10 = load i8, ptr %9, align 1
  %11 = sext i8 %10 to i32
  %12 = load ptr, ptr %5, align 8
  %13 = getelementptr inbounds nuw %"struct.open_spiel::chess_common::Offset", ptr %12, i32 0, i32 0
  %14 = load i8, ptr %13, align 1
  %15 = sext i8 %14 to i32
  %16 = add nsw i32 %11, %15
  %17 = trunc i32 %16 to i8
  store i8 %17, ptr %6, align 1
  %18 = load ptr, ptr %4, align 8
  %19 = getelementptr inbounds nuw %"struct.open_spiel::chess_common::Square", ptr %18, i32 0, i32 1
  %20 = load i8, ptr %19, align 1
  %21 = sext i8 %20 to i32
  %22 = load ptr, ptr %5, align 8
  %23 = getelementptr inbounds nuw %"struct.open_spiel::chess_common::Offset", ptr %22, i32 0, i32 1
  %24 = load i8, ptr %23, align 1
  %25 = sext i8 %24 to i32
  %26 = add nsw i32 %21, %25
  %27 = trunc i32 %26 to i8
  store i8 %27, ptr %7, align 1
  %28 = getelementptr inbounds nuw %"struct.open_spiel::chess_common::Square", ptr %3, i32 0, i32 0
  %29 = load i8, ptr %6, align 1
  store i8 %29, ptr %28, align 1
  %30 = getelementptr inbounds nuw %"struct.open_spiel::chess_common::Square", ptr %3, i32 0, i32 1
  %31 = load i8, ptr %7, align 1
  store i8 %31, ptr %30, align 1
  %32 = load i16, ptr %3, align 1
  ret i16 %32
}

; Function Attrs: mustprogress uwtable
define internal noundef zeroext i1 @"_ZZN10open_spiel10dark_chess12_GLOBAL__N_113IsUnderAttackENS_12chess_common6SquareENS_5chess5PieceES3_S5_ENK3$_2clEv"(ptr noundef nonnull align 8 dereferenceable(24) %0) #4 align 2 {
  %2 = alloca ptr, align 8
  %3 = alloca i8, align 1
  %4 = alloca %"struct.open_spiel::chess_common::Square", align 1
  %5 = alloca %"struct.open_spiel::chess_common::Offset", align 1
  %6 = alloca %"struct.open_spiel::chess_common::Square", align 1
  %7 = alloca %"struct.open_spiel::chess_common::Offset", align 1
  store ptr %0, ptr %2, align 8
  %8 = load ptr, ptr %2, align 8
  %9 = getelementptr inbounds nuw %class.anon.185, ptr %8, i32 0, i32 0
  %10 = load ptr, ptr %9, align 8
  %11 = getelementptr inbounds nuw %"struct.open_spiel::chess::Piece", ptr %10, i32 0, i32 0
  %12 = load i8, ptr %11, align 1
  %13 = icmp eq i8 %12, 1
  %14 = select i1 %13, i32 1, i32 -1
  %15 = trunc i32 %14 to i8
  store i8 %15, ptr %3, align 1
  %16 = getelementptr inbounds nuw %class.anon.185, ptr %8, i32 0, i32 1
  %17 = load ptr, ptr %16, align 8
  %18 = getelementptr inbounds nuw %class.anon.185, ptr %8, i32 0, i32 2
  %19 = load ptr, ptr %18, align 8
  %20 = getelementptr inbounds nuw %"struct.open_spiel::chess_common::Offset", ptr %5, i32 0, i32 0
  store i8 1, ptr %20, align 1
  %21 = getelementptr inbounds nuw %"struct.open_spiel::chess_common::Offset", ptr %5, i32 0, i32 1
  %22 = load i8, ptr %3, align 1
  store i8 %22, ptr %21, align 1
  %23 = call i16 @_ZN10open_spiel12chess_commonplERKNS0_6SquareERKNS0_6OffsetE(ptr noundef nonnull align 1 dereferenceable(2) %19, ptr noundef nonnull align 1 dereferenceable(2) %5)
  store i16 %23, ptr %4, align 1
  %24 = call noundef zeroext i1 @_ZNK10open_spiel12chess_common6SquareeqERKS1_(ptr noundef nonnull align 1 dereferenceable(2) %17, ptr noundef nonnull align 1 dereferenceable(2) %4)
  br i1 %24, label %35, label %25

25:                                               ; preds = %1
  %26 = getelementptr inbounds nuw %class.anon.185, ptr %8, i32 0, i32 1
  %27 = load ptr, ptr %26, align 8
  %28 = getelementptr inbounds nuw %class.anon.185, ptr %8, i32 0, i32 2
  %29 = load ptr, ptr %28, align 8
  %30 = getelementptr inbounds nuw %"struct.open_spiel::chess_common::Offset", ptr %7, i32 0, i32 0
  store i8 -1, ptr %30, align 1
  %31 = getelementptr inbounds nuw %"struct.open_spiel::chess_common::Offset", ptr %7, i32 0, i32 1
  %32 = load i8, ptr %3, align 1
  store i8 %32, ptr %31, align 1
  %33 = call i16 @_ZN10open_spiel12chess_commonplERKNS0_6SquareERKNS0_6OffsetE(ptr noundef nonnull align 1 dereferenceable(2) %29, ptr noundef nonnull align 1 dereferenceable(2) %7)
  store i16 %33, ptr %6, align 1
  %34 = call noundef zeroext i1 @_ZNK10open_spiel12chess_common6SquareeqERKS1_(ptr noundef nonnull align 1 dereferenceable(2) %27, ptr noundef nonnull align 1 dereferenceable(2) %6)
  br label %35

35:                                               ; preds = %25, %1
  %36 = phi i1 [ true, %1 ], [ %34, %25 ]
  ret i1 %36
}