; Function Attrs: mustprogress nofree norecurse nosync nounwind willreturn memory(read, inaccessiblemem: none) uwtable
define internal fastcc noundef zeroext i1 @"_ZZN10open_spiel10dark_chess12_GLOBAL__N_113IsUnderAttackENS_12chess_common6SquareENS_5chess5PieceES3_S5_ENK3$_2clEv"(ptr noundef nonnull readonly align 8 captures(none) dereferenceable(24) %0) unnamed_addr #22 align 2 {
  %2 = load ptr, ptr %0, align 8
  %3 = load i8, ptr %2, align 1
  %4 = icmp eq i8 %3, 1
  %5 = select i1 %4, i8 1, i8 -1
  %6 = getelementptr inbounds nuw i8, ptr %0, i64 8
  %7 = load ptr, ptr %6, align 8
  %8 = getelementptr inbounds nuw i8, ptr %0, i64 16
  %9 = load ptr, ptr %8, align 8
  %10 = load i8, ptr %9, align 1
  %11 = add i8 %10, 1
  %12 = getelementptr inbounds nuw i8, ptr %9, i64 1
  %13 = load i8, ptr %12, align 1
  %14 = add i8 %13, %5
  %15 = load i8, ptr %7, align 1
  %16 = icmp eq i8 %15, %11
  %17 = getelementptr inbounds nuw i8, ptr %7, i64 1
  %18 = load i8, ptr %17, align 1
  %19 = icmp eq i8 %18, %14
  %20 = select i1 %16, i1 %19, i1 false
  br i1 %20, label %25, label %21

21:                                               ; preds = %1
  %22 = add i8 %10, -1
  %23 = icmp eq i8 %15, %22
  %24 = select i1 %23, i1 %19, i1 false
  br label %25

25:                                               ; preds = %21, %1
  %26 = phi i1 [ true, %1 ], [ %24, %21 ]
  ret i1 %26
}